; Function Attrs: mustprogress nounwind uwtable
define void @ShDestruct(ptr noundef %0) local_unnamed_addr #3 {
  %2 = icmp eq ptr %0, null
  br i1 %2, label %31, label %3

3:                                                ; preds = %1
  %4 = load ptr, ptr %0, align 8
  %5 = getelementptr inbounds nuw i8, ptr %4, i64 16
  %6 = load ptr, ptr %5, align 8
  %7 = tail call noundef ptr %6(ptr noundef nonnull align 8 dereferenceable(16) %0) #24
  %.not = icmp eq ptr %7, null
  %8 = load ptr, ptr %0, align 8
  br i1 %.not, label %13, label %9

9:                                                ; preds = %3
  %10 = getelementptr inbounds nuw i8, ptr %8, i64 16
  %11 = load ptr, ptr %10, align 8
  %12 = tail call noundef ptr %11(ptr noundef nonnull align 8 dereferenceable(16) %0) #24
  tail call void @_Z14DeleteCompilerP9TCompiler(ptr noundef %12) #24
  br label %31

13:                                               ; preds = %3
  %14 = getelementptr inbounds nuw i8, ptr %8, i64 24
  %15 = load ptr, ptr %14, align 8
  %16 = tail call noundef ptr %15(ptr noundef nonnull align 8 dereferenceable(16) %0) #24
  %.not8 = icmp eq ptr %16, null
  %17 = load ptr, ptr %0, align 8
  br i1 %.not8, label %22, label %18

18:                                               ; preds = %13
  %19 = getelementptr inbounds nuw i8, ptr %17, i64 24
  %20 = load ptr, ptr %19, align 8
  %21 = tail call noundef ptr %20(ptr noundef nonnull align 8 dereferenceable(16) %0) #24
  tail call void @_Z12DeleteLinkerP13TShHandleBase(ptr noundef %21) #24
  br label %31

22:                                               ; preds = %13
  %23 = getelementptr inbounds nuw i8, ptr %17, i64 32
  %24 = load ptr, ptr %23, align 8
  %25 = tail call noundef ptr %24(ptr noundef nonnull align 8 dereferenceable(16) %0) #24
  %.not9 = icmp eq ptr %25, null
  br i1 %.not9, label %31, label %26

26:                                               ; preds = %22
  %27 = load ptr, ptr %0, align 8
  %28 = getelementptr inbounds nuw i8, ptr %27, i64 32
  %29 = load ptr, ptr %28, align 8
  %30 = tail call noundef ptr %29(ptr noundef nonnull align 8 dereferenceable(16) %0) #24
  tail call void @_Z16DeleteUniformMapP11TUniformMap(ptr noundef %30) #24
  br label %31

31:                                               ; preds = %18, %26, %22, %1, %9
  ret void
}